target datalayout = "e-m:e-p270:32:32-p271:32:32-p272:64:64-i64:64-i128:128-f80:128-n8:16:32:64-S128"
target triple = "x86_64-pc-linux-gnu"

%"class.cv::structured_light::SinusoidalPatternProfilometry_Impl::Marker" = type { %"class.cv::Point_", %"class.cv::Point_", %"class.cv::Point_", %"class.cv::Point_", %"class.cv::Point_" }
%"class.cv::Point_" = type { i32, i32 }
%"class.cv::_InputArray" = type { i32, ptr, %"class.cv::Size_" }
%"class.cv::Size_" = type { i32, i32 }
%"class.cv::Mat" = type { i32, i32, i32, i32, ptr, ptr, ptr, ptr, ptr, ptr, %"struct.cv::MatSize", %"struct.cv::MatStep" }
%"struct.cv::MatSize" = type { ptr }
%"struct.cv::MatStep" = type { ptr, [2 x i64] }

; Function Attrs: inlinehint mustprogress nounwind uwtable
define linkonce_odr hidden noundef nonnull align 1 dereferenceable(1) ptr @_ZN2cv3Mat2atIhEERT_ii(ptr noundef nonnull align 8 dereferenceable(96) %0, i32 noundef %1, i32 noundef %2) #6 comdat align 2 {
  %4 = alloca ptr, align 8
  %5 = alloca i32, align 4
  %6 = alloca i32, align 4
  store ptr %0, ptr %4, align 8, !tbaa !47
  store i32 %1, ptr %5, align 4, !tbaa !35
  store i32 %2, ptr %6, align 4, !tbaa !35
  %7 = load ptr, ptr %4, align 8
  %8 = getelementptr inbounds nuw %"class.cv::Mat", ptr %7, i32 0, i32 4
  %9 = load ptr, ptr %8, align 8, !tbaa !57
  %10 = getelementptr inbounds nuw %"class.cv::Mat", ptr %7, i32 0, i32 11
  %11 = getelementptr inbounds nuw %"struct.cv::MatStep", ptr %10, i32 0, i32 0
  %12 = load ptr, ptr %11, align 8, !tbaa !66
  %13 = getelementptr inbounds i64, ptr %12, i64 0
  %14 = load i64, ptr %13, align 8, !tbaa !67
  %15 = load i32, ptr %5, align 4, !tbaa !35
  %16 = sext i32 %15 to i64
  %17 = mul i64 %14, %16
  %18 = getelementptr inbounds nuw i8, ptr %9, i64 %17
  %19 = load i32, ptr %6, align 4, !tbaa !35
  %20 = sext i32 %19 to i64
  %21 = getelementptr inbounds i8, ptr %18, i64 %20
  ret ptr %21
}

; Function Attrs: inlinehint mustprogress nounwind uwtable
define linkonce_odr hidden noundef ptr @_ZNK2cv11_InputArray6getObjEv(ptr noundef nonnull align 8 dereferenceable(24) %0) #6 comdat align 2 {
  %2 = alloca ptr, align 8
  store ptr %0, ptr %2, align 8, !tbaa !52
  %3 = load ptr, ptr %2, align 8
  %4 = getelementptr inbounds nuw %"class.cv::_InputArray", ptr %3, i32 0, i32 1
  %5 = load ptr, ptr %4, align 8, !tbaa !54
  ret ptr %5
}

; Function Attrs: mustprogress uwtable
define void @_ZN2cv16structured_light34SinusoidalPatternProfilometry_Impl6Marker10drawMarkerERKNS_12_OutputArrayE(ptr noundef nonnull align 4 dereferenceable(40) %0, ptr noundef nonnull align 8 dereferenceable(24) %1) #5 align 2 {
  %3 = alloca ptr, align 8
  %4 = alloca ptr, align 8
  %5 = alloca ptr, align 8
  store ptr %0, ptr %3, align 8, !tbaa !27
  store ptr %1, ptr %4, align 8, !tbaa !45
  %6 = load ptr, ptr %3, align 8
  call void @llvm.lifetime.start.p0(i64 8, ptr %5) #3
  %7 = load ptr, ptr %4, align 8, !tbaa !45
  %8 = call noundef ptr @_ZNK2cv11_InputArray6getObjEv(ptr noundef nonnull align 8 dereferenceable(24) %7)
  store ptr %8, ptr %5, align 8, !tbaa !47
  %9 = load ptr, ptr %5, align 8, !tbaa !47
  %10 = getelementptr inbounds nuw %"class.cv::structured_light::SinusoidalPatternProfilometry_Impl::Marker", ptr %6, i32 0, i32 0
  %11 = getelementptr inbounds nuw %"class.cv::Point_", ptr %10, i32 0, i32 0
  %12 = load i32, ptr %11, align 4, !tbaa !49
  %13 = getelementptr inbounds nuw %"class.cv::structured_light::SinusoidalPatternProfilometry_Impl::Marker", ptr %6, i32 0, i32 0
  %14 = getelementptr inbounds nuw %"class.cv::Point_", ptr %13, i32 0, i32 1
  %15 = load i32, ptr %14, align 4, !tbaa !50
  %16 = call noundef nonnull align 1 dereferenceable(1) ptr @_ZN2cv3Mat2atIhEERT_ii(ptr noundef nonnull align 8 dereferenceable(96) %9, i32 noundef %12, i32 noundef %15)
  store i8 -1, ptr %16, align 1, !tbaa !51
  %17 = load ptr, ptr %5, align 8, !tbaa !47
  %18 = getelementptr inbounds nuw %"class.cv::structured_light::SinusoidalPatternProfilometry_Impl::Marker", ptr %6, i32 0, i32 1
  %19 = getelementptr inbounds nuw %"class.cv::Point_", ptr %18, i32 0, i32 0
  %20 = load i32, ptr %19, align 4, !tbaa !36
  %21 = getelementptr inbounds nuw %"class.cv::structured_light::SinusoidalPatternProfilometry_Impl::Marker", ptr %6, i32 0, i32 1
  %22 = getelementptr inbounds nuw %"class.cv::Point_", ptr %21, i32 0, i32 1
  %23 = load i32, ptr %22, align 4, !tbaa !38
  %24 = call noundef nonnull align 1 dereferenceable(1) ptr @_ZN2cv3Mat2atIhEERT_ii(ptr noundef nonnull align 8 dereferenceable(96) %17, i32 noundef %20, i32 noundef %23)
  store i8 -1, ptr %24, align 1, !tbaa !51
  %25 = load ptr, ptr %5, align 8, !tbaa !47
  %26 = getelementptr inbounds nuw %"class.cv::structured_light::SinusoidalPatternProfilometry_Impl::Marker", ptr %6, i32 0, i32 2
  %27 = getelementptr inbounds nuw %"class.cv::Point_", ptr %26, i32 0, i32 0
  %28 = load i32, ptr %27, align 4, !tbaa !43
  %29 = getelementptr inbounds nuw %"class.cv::structured_light::SinusoidalPatternProfilometry_Impl::Marker", ptr %6, i32 0, i32 2
  %30 = getelementptr inbounds nuw %"class.cv::Point_", ptr %29, i32 0, i32 1
  %31 = load i32, ptr %30, align 4, !tbaa !44
  %32 = call noundef nonnull align 1 dereferenceable(1) ptr @_ZN2cv3Mat2atIhEERT_ii(ptr noundef nonnull align 8 dereferenceable(96) %25, i32 noundef %28, i32 noundef %31)
  store i8 -1, ptr %32, align 1, !tbaa !51
  %33 = load ptr, ptr %5, align 8, !tbaa !47
  %34 = getelementptr inbounds nuw %"class.cv::structured_light::SinusoidalPatternProfilometry_Impl::Marker", ptr %6, i32 0, i32 3
  %35 = getelementptr inbounds nuw %"class.cv::Point_", ptr %34, i32 0, i32 0
  %36 = load i32, ptr %35, align 4, !tbaa !39
  %37 = getelementptr inbounds nuw %"class.cv::structured_light::SinusoidalPatternProfilometry_Impl::Marker", ptr %6, i32 0, i32 3
  %38 = getelementptr inbounds nuw %"class.cv::Point_", ptr %37, i32 0, i32 1
  %39 = load i32, ptr %38, align 4, !tbaa !40
  %40 = call noundef nonnull align 1 dereferenceable(1) ptr @_ZN2cv3Mat2atIhEERT_ii(ptr noundef nonnull align 8 dereferenceable(96) %33, i32 noundef %36, i32 noundef %39)
  store i8 -1, ptr %40, align 1, !tbaa !51
  %41 = load ptr, ptr %5, align 8, !tbaa !47
  %42 = getelementptr inbounds nuw %"class.cv::structured_light::SinusoidalPatternProfilometry_Impl::Marker", ptr %6, i32 0, i32 4
  %43 = getelementptr inbounds nuw %"class.cv::Point_", ptr %42, i32 0, i32 0
  %44 = load i32, ptr %43, align 4, !tbaa !41
  %45 = getelementptr inbounds nuw %"class.cv::structured_light::SinusoidalPatternProfilometry_Impl::Marker", ptr %6, i32 0, i32 4
  %46 = getelementptr inbounds nuw %"class.cv::Point_", ptr %45, i32 0, i32 1
  %47 = load i32, ptr %46, align 4, !tbaa !42
  %48 = call noundef nonnull align 1 dereferenceable(1) ptr @_ZN2cv3Mat2atIhEERT_ii(ptr noundef nonnull align 8 dereferenceable(96) %41, i32 noundef %44, i32 noundef %47)
  store i8 -1, ptr %48, align 1, !tbaa !51
  call void @llvm.lifetime.end.p0(i64 8, ptr %5) #3
  ret void
}