; Function Attrs: mustprogress nofree norecurse nosync nounwind willreturn memory(readwrite, inaccessiblemem: none) uwtable
define void @_ZN2cv16structured_light34SinusoidalPatternProfilometry_Impl6Marker10drawMarkerERKNS_12_OutputArrayE(ptr noundef nonnull readonly align 4 captures(none) dereferenceable(40) %0, ptr noundef nonnull readonly align 8 captures(none) dereferenceable(24) %1) local_unnamed_addr #5 align 2 {
  %3 = getelementptr inbounds nuw i8, ptr %1, i64 8
  %4 = load ptr, ptr %3, align 8, !tbaa !34
  %5 = load i32, ptr %0, align 4, !tbaa !37
  %6 = getelementptr inbounds nuw i8, ptr %0, i64 4
  %7 = load i32, ptr %6, align 4, !tbaa !38
  %8 = getelementptr inbounds nuw i8, ptr %4, i64 16
  %9 = load ptr, ptr %8, align 8, !tbaa !39
  %10 = getelementptr inbounds nuw i8, ptr %4, i64 72
  %11 = load ptr, ptr %10, align 8, !tbaa !48
  %12 = load i64, ptr %11, align 8, !tbaa !49
  %13 = sext i32 %5 to i64
  %14 = mul i64 %12, %13
  %15 = getelementptr inbounds nuw i8, ptr %9, i64 %14
  %16 = sext i32 %7 to i64
  %17 = getelementptr inbounds i8, ptr %15, i64 %16
  store i8 -1, ptr %17, align 1, !tbaa !51
  %18 = getelementptr inbounds nuw i8, ptr %0, i64 8
  %19 = load i32, ptr %18, align 4, !tbaa !24
  %20 = getelementptr inbounds nuw i8, ptr %0, i64 12
  %21 = load i32, ptr %20, align 4, !tbaa !27
  %22 = load ptr, ptr %8, align 8, !tbaa !39
  %23 = load ptr, ptr %10, align 8, !tbaa !48
  %24 = load i64, ptr %23, align 8, !tbaa !49
  %25 = sext i32 %19 to i64
  %26 = mul i64 %24, %25
  %27 = getelementptr inbounds nuw i8, ptr %22, i64 %26
  %28 = sext i32 %21 to i64
  %29 = getelementptr inbounds i8, ptr %27, i64 %28
  store i8 -1, ptr %29, align 1, !tbaa !51
  %30 = getelementptr inbounds nuw i8, ptr %0, i64 16
  %31 = load i32, ptr %30, align 4, !tbaa !32
  %32 = getelementptr inbounds nuw i8, ptr %0, i64 20
  %33 = load i32, ptr %32, align 4, !tbaa !33
  %34 = load ptr, ptr %8, align 8, !tbaa !39
  %35 = load ptr, ptr %10, align 8, !tbaa !48
  %36 = load i64, ptr %35, align 8, !tbaa !49
  %37 = sext i32 %31 to i64
  %38 = mul i64 %36, %37
  %39 = getelementptr inbounds nuw i8, ptr %34, i64 %38
  %40 = sext i32 %33 to i64
  %41 = getelementptr inbounds i8, ptr %39, i64 %40
  store i8 -1, ptr %41, align 1, !tbaa !51
  %42 = getelementptr inbounds nuw i8, ptr %0, i64 24
  %43 = load i32, ptr %42, align 4, !tbaa !28
  %44 = getelementptr inbounds nuw i8, ptr %0, i64 28
  %45 = load i32, ptr %44, align 4, !tbaa !29
  %46 = load ptr, ptr %8, align 8, !tbaa !39
  %47 = load ptr, ptr %10, align 8, !tbaa !48
  %48 = load i64, ptr %47, align 8, !tbaa !49
  %49 = sext i32 %43 to i64
  %50 = mul i64 %48, %49
  %51 = getelementptr inbounds nuw i8, ptr %46, i64 %50
  %52 = sext i32 %45 to i64
  %53 = getelementptr inbounds i8, ptr %51, i64 %52
  store i8 -1, ptr %53, align 1, !tbaa !51
  %54 = getelementptr inbounds nuw i8, ptr %0, i64 32
  %55 = load i32, ptr %54, align 4, !tbaa !30
  %56 = getelementptr inbounds nuw i8, ptr %0, i64 36
  %57 = load i32, ptr %56, align 4, !tbaa !31
  %58 = load ptr, ptr %8, align 8, !tbaa !39
  %59 = load ptr, ptr %10, align 8, !tbaa !48
  %60 = load i64, ptr %59, align 8, !tbaa !49
  %61 = sext i32 %55 to i64
  %62 = mul i64 %60, %61
  %63 = getelementptr inbounds nuw i8, ptr %58, i64 %62
  %64 = sext i32 %57 to i64
  %65 = getelementptr inbounds i8, ptr %63, i64 %64
  store i8 -1, ptr %65, align 1, !tbaa !51
  ret void
}